target datalayout = "e-m:e-p270:32:32-p271:32:32-p272:64:64-i64:64-i128:128-f80:128-n8:16:32:64-S128"
target triple = "x86_64-pc-linux-gnu"

%struct.anon = type { i32, ptr, ptr, i32, i32, i32, i32, i32, i32, i32, i32, i32, ptr, ptr, ptr, ptr, ptr, ptr, ptr, ptr, [1 x %struct.__jmp_buf_tag], i32, ptr, ptr }
%struct.__jmp_buf_tag = type { [8 x i64], i32, %struct.__sigset_t }
%struct.__sigset_t = type { [16 x i64] }
%struct.clar_report = type { ptr, i32, ptr, i32, i64, double, ptr, ptr, ptr }
%struct.clar_error = type { ptr, ptr, i64, ptr, ptr, ptr }

@_clar = internal global %struct.anon zeroinitializer, align 8

; Function Attrs: nounwind uwtable
define internal void @clar_report_errors(ptr noundef %0) #0 {
  %2 = alloca ptr, align 8
  %3 = alloca ptr, align 8
  %4 = alloca i32, align 4
  store ptr %0, ptr %2, align 8, !tbaa !66
  call void @llvm.lifetime.start.p0(i64 8, ptr %3) #13
  call void @llvm.lifetime.start.p0(i64 4, ptr %4) #13
  store i32 1, ptr %4, align 4, !tbaa !16
  %5 = load ptr, ptr %2, align 8, !tbaa !66
  %6 = getelementptr inbounds nuw %struct.clar_report, ptr %5, i32 0, i32 6
  %7 = load ptr, ptr %6, align 8, !tbaa !81
  store ptr %7, ptr %3, align 8, !tbaa !82
  br label %8

8:                                                ; preds = %16, %1
  %9 = load ptr, ptr %3, align 8, !tbaa !82
  %10 = icmp ne ptr %9, null
  br i1 %10, label %11, label %20

11:                                               ; preds = %8
  %12 = load i32, ptr %4, align 4, !tbaa !16
  %13 = add nsw i32 %12, 1
  store i32 %13, ptr %4, align 4, !tbaa !16
  %14 = load ptr, ptr getelementptr inbounds nuw (%struct.anon, ptr @_clar, i32 0, i32 17), align 8, !tbaa !76
  %15 = load ptr, ptr %3, align 8, !tbaa !82
  call void @clar_print_error(i32 noundef %12, ptr noundef %14, ptr noundef %15)
  br label %16

16:                                               ; preds = %11
  %17 = load ptr, ptr %3, align 8, !tbaa !82
  %18 = getelementptr inbounds nuw %struct.clar_error, ptr %17, i32 0, i32 5
  %19 = load ptr, ptr %18, align 8, !tbaa !88
  store ptr %19, ptr %3, align 8, !tbaa !82
  br label %8, !llvm.loop !113

20:                                               ; preds = %8
  call void @llvm.lifetime.end.p0(i64 4, ptr %4) #13
  call void @llvm.lifetime.end.p0(i64 8, ptr %3) #13
  ret void
}