; Function Attrs: nofree nounwind uwtable
define internal fastcc void @clar_report_errors(ptr noundef readonly captures(none) %0) unnamed_addr #18 {
  %2 = getelementptr inbounds nuw i8, ptr %0, i64 48
  %.045 = load ptr, ptr %2, align 8, !tbaa !73
  %.not6 = icmp eq ptr %.045, null
  br i1 %.not6, label %._crit_edge, label %.lr.ph

.lr.ph:                                           ; preds = %1, %.lr.ph
  %.048 = phi ptr [ %.04, %.lr.ph ], [ %.045, %1 ]
  %.07 = phi i32 [ %3, %.lr.ph ], [ 1, %1 ]
  %3 = add nuw nsw i32 %.07, 1
  %4 = load ptr, ptr getelementptr inbounds nuw (i8, ptr @_clar, i64 104), align 8, !tbaa !69
  tail call fastcc void @clar_print_error(i32 noundef %.07, ptr noundef %4, ptr noundef %.048)
  %5 = getelementptr inbounds nuw i8, ptr %.048, i64 40
  %.04 = load ptr, ptr %5, align 8, !tbaa !73
  %.not = icmp eq ptr %.04, null
  br i1 %.not, label %._crit_edge, label %.lr.ph, !llvm.loop !110

._crit_edge:                                      ; preds = %.lr.ph, %1
  ret void
}